; Function Attrs: nounwind uwtable
define dso_local i64 @enum_range_all(ptr noundef readonly captures(none) %0) local_unnamed_addr #0 {
  %2 = load ptr, ptr %0, align 8
  %3 = tail call i32 @get_fn_expr_argtype(ptr noundef %2, i32 noundef 0) #8
  %4 = icmp eq i32 %3, 0
  br i1 %4, label %5, label %9

5:                                                ; preds = %1
  %6 = tail call zeroext i1 @errstart_cold(i32 noundef 21, ptr noundef null) #9
  tail call void @llvm.assume(i1 %6)
  %7 = tail call i32 @errcode(i32 noundef 1088) #8
  %8 = tail call i32 (ptr, ...) @errmsg(ptr noundef nonnull @.str.3) #8
  tail call void @errfinish(ptr noundef nonnull @.str.1, i32 noundef 540, ptr noundef nonnull @__func__.enum_range_all) #8
  unreachable

9:                                                ; preds = %1
  %10 = tail call fastcc ptr @enum_range_internal(i32 noundef %3, i32 noundef 0, i32 noundef 0)
  %11 = ptrtoint ptr %10 to i64
  ret i64 %11
}